target datalayout = "e-m:e-p270:32:32-p271:32:32-p272:64:64-i64:64-i128:128-f80:128-n8:16:32:64-S128"
target triple = "x86_64-pc-linux-gnu"

%struct.darktable_t = type { %struct.dt_codepath_t, i32, i32, ptr, ptr, ptr, ptr, ptr, ptr, ptr, ptr, ptr, ptr, ptr, ptr, ptr, ptr, ptr, ptr, ptr, ptr, ptr, ptr, ptr, ptr, ptr, ptr, ptr, ptr, ptr, [64 x %struct.dt_pthread_mutex_t], %struct.dt_pthread_mutex_t, %struct.dt_pthread_mutex_t, %struct.dt_pthread_mutex_t, %struct.dt_pthread_mutex_t, %struct.dt_pthread_mutex_t, ptr, ptr, ptr, ptr, ptr, ptr, ptr, ptr, ptr, ptr, ptr, ptr, ptr, %struct.dt_lua_state_t, ptr, double, ptr, i32, [47 x i32], i32, i32, ptr, ptr, %struct.dt_sys_resources_t, %struct.dt_backthumb_t, %struct.dt_gimp_t }
%struct.dt_codepath_t = type { i8, [3 x i8] }
%struct.dt_pthread_mutex_t = type { %union.pthread_mutex_t }
%union.pthread_mutex_t = type { %struct.__pthread_mutex_s }
%struct.__pthread_mutex_s = type { i32, i32, i32, i32, i32, i16, i16, %struct.__pthread_internal_list }
%struct.__pthread_internal_list = type { ptr, ptr }
%struct.dt_lua_state_t = type { i32 }
%struct.dt_sys_resources_t = type { i64, i64, ptr, ptr, i32 }
%struct.dt_backthumb_t = type { double, double, i32, i32, i32, i32 }
%struct.dt_gimp_t = type { i32, ptr, ptr, i32, i32 }
%struct._GError = type { i32, i32, ptr }

@darktable = external global %struct.darktable_t, align 8
@.str.25 = private unnamed_addr constant [55 x i8] c"[pwstorage_kwallet] ERROR: error converting string: %s\00", align 1

; Function Attrs: nounwind uwtable
define internal ptr @char2qstring(ptr noundef %0, ptr noundef %1) #0 {
  %3 = alloca ptr, align 8
  %4 = alloca ptr, align 8
  %5 = alloca ptr, align 8
  %6 = alloca i64, align 8
  %7 = alloca i64, align 8
  %8 = alloca ptr, align 8
  %9 = alloca ptr, align 8
  %10 = alloca i32, align 4
  %11 = alloca i64, align 8
  %12 = alloca i32, align 4
  %13 = alloca i32, align 4
  %14 = alloca i32, align 4
  %15 = alloca i32, align 4
  %16 = alloca i32, align 4
  %17 = alloca ptr, align 8
  store ptr %0, ptr %4, align 8, !tbaa !59
  store ptr %1, ptr %5, align 8, !tbaa !75
  call void @llvm.lifetime.start.p0(i64 8, ptr %6) #8
  call void @llvm.lifetime.start.p0(i64 8, ptr %7) #8
  call void @llvm.lifetime.start.p0(i64 8, ptr %8) #8
  store ptr null, ptr %8, align 8, !tbaa !11
  call void @llvm.lifetime.start.p0(i64 8, ptr %9) #8
  %18 = load ptr, ptr %4, align 8, !tbaa !59
  %19 = call noalias ptr @g_utf8_to_utf16(ptr noundef %18, i64 noundef -1, ptr noundef %6, ptr noundef %7, ptr noundef %8)
  store ptr %19, ptr %9, align 8, !tbaa !77
  %20 = load ptr, ptr %8, align 8, !tbaa !11
  %21 = icmp ne ptr %20, null
  br i1 %21, label %22, label %41

22:                                               ; preds = %2
  br label %23

23:                                               ; preds = %22
  %24 = load i32, ptr getelementptr inbounds nuw (%struct.darktable_t, ptr @darktable, i32 0, i32 2), align 8, !tbaa !18
  %25 = and i32 64, %24
  %26 = icmp ne i32 %25, 0
  br i1 %26, label %27, label %36

27:                                               ; preds = %23
  %28 = load i32, ptr getelementptr inbounds nuw (%struct.darktable_t, ptr @darktable, i32 0, i32 2), align 8, !tbaa !18
  %29 = xor i32 %28, -1
  %30 = and i32 0, %29
  %31 = icmp ne i32 %30, 0
  br i1 %31, label %36, label %32

32:                                               ; preds = %27
  %33 = load ptr, ptr %8, align 8, !tbaa !11
  %34 = getelementptr inbounds nuw %struct._GError, ptr %33, i32 0, i32 2
  %35 = load ptr, ptr %34, align 8, !tbaa !56
  call void (ptr, ...) @dt_print_ext(ptr noundef @.str.25, ptr noundef %35)
  br label %36

36:                                               ; preds = %32, %27, %23
  br label %37

37:                                               ; preds = %36
  br label %38

38:                                               ; preds = %37
  %39 = load ptr, ptr %9, align 8, !tbaa !77
  call void @g_free(ptr noundef %39)
  %40 = load ptr, ptr %8, align 8, !tbaa !11
  call void @g_error_free(ptr noundef %40)
  store ptr null, ptr %3, align 8
  store i32 1, ptr %10, align 4
  br label %115

41:                                               ; preds = %2
  call void @llvm.lifetime.start.p0(i64 8, ptr %11) #8
  store i64 0, ptr %11, align 8, !tbaa !71
  br label %42

42:                                               ; preds = %68, %41
  %43 = load i64, ptr %11, align 8, !tbaa !71
  %44 = load i64, ptr %7, align 8, !tbaa !71
  %45 = icmp slt i64 %43, %44
  br i1 %45, label %46, label %71

46:                                               ; preds = %42
  %47 = load ptr, ptr %9, align 8, !tbaa !77
  %48 = load i64, ptr %11, align 8, !tbaa !71
  %49 = getelementptr inbounds i16, ptr %47, i64 %48
  %50 = load i16, ptr %49, align 2, !tbaa !79
  %51 = zext i16 %50 to i32
  %52 = ashr i32 %51, 8
  %53 = trunc i32 %52 to i16
  %54 = zext i16 %53 to i32
  %55 = load ptr, ptr %9, align 8, !tbaa !77
  %56 = load i64, ptr %11, align 8, !tbaa !71
  %57 = getelementptr inbounds i16, ptr %55, i64 %56
  %58 = load i16, ptr %57, align 2, !tbaa !79
  %59 = zext i16 %58 to i32
  %60 = shl i32 %59, 8
  %61 = trunc i32 %60 to i16
  %62 = zext i16 %61 to i32
  %63 = or i32 %54, %62
  %64 = trunc i32 %63 to i16
  %65 = load ptr, ptr %9, align 8, !tbaa !77
  %66 = load i64, ptr %11, align 8, !tbaa !71
  %67 = getelementptr inbounds i16, ptr %65, i64 %66
  store i16 %64, ptr %67, align 2, !tbaa !79
  br label %68

68:                                               ; preds = %46
  %69 = load i64, ptr %11, align 8, !tbaa !71
  %70 = add nsw i64 %69, 1
  store i64 %70, ptr %11, align 8, !tbaa !71
  br label %42

71:                                               ; preds = %42
  call void @llvm.lifetime.start.p0(i64 4, ptr %12) #8
  %72 = load i64, ptr %7, align 8, !tbaa !71
  %73 = mul i64 2, %72
  %74 = trunc i64 %73 to i32
  store i32 %74, ptr %12, align 4, !tbaa !62
  call void @llvm.lifetime.start.p0(i64 4, ptr %13) #8
  call void @llvm.lifetime.start.p0(i64 4, ptr %14) #8
  call void @llvm.lifetime.start.p0(i64 4, ptr %15) #8
  %75 = load i32, ptr %12, align 4, !tbaa !62
  store i32 %75, ptr %15, align 4, !tbaa !62
  %76 = load i32, ptr %15, align 4, !tbaa !62
  %77 = call i1 @llvm.is.constant.i32(i32 %76)
  br i1 %77, label %78, label %94

78:                                               ; preds = %71
  %79 = load i32, ptr %15, align 4, !tbaa !62
  %80 = and i32 %79, 255
  %81 = shl i32 %80, 24
  %82 = load i32, ptr %15, align 4, !tbaa !62
  %83 = and i32 %82, 65280
  %84 = shl i32 %83, 8
  %85 = or i32 %81, %84
  %86 = load i32, ptr %15, align 4, !tbaa !62
  %87 = and i32 %86, 16711680
  %88 = lshr i32 %87, 8
  %89 = or i32 %85, %88
  %90 = load i32, ptr %15, align 4, !tbaa !62
  %91 = and i32 %90, -16777216
  %92 = lshr i32 %91, 24
  %93 = or i32 %89, %92
  store i32 %93, ptr %14, align 4, !tbaa !62
  br label %97

94:                                               ; preds = %71
  %95 = load i32, ptr %15, align 4, !tbaa !62
  %96 = call i32 asm "bswapl $0", "=r,0,~{dirflag},~{fpsr},~{flags}"(i32 %95) #10, !srcloc !81
  store i32 %96, ptr %14, align 4, !tbaa !62
  br label %97

97:                                               ; preds = %94, %78
  %98 = load i32, ptr %14, align 4, !tbaa !62
  store i32 %98, ptr %16, align 4, !tbaa !62
  call void @llvm.lifetime.end.p0(i64 4, ptr %15) #8
  call void @llvm.lifetime.end.p0(i64 4, ptr %14) #8
  %99 = load i32, ptr %16, align 4, !tbaa !62
  store i32 %99, ptr %13, align 4, !tbaa !62
  %100 = load i32, ptr %12, align 4, !tbaa !62
  %101 = zext i32 %100 to i64
  %102 = add i64 4, %101
  %103 = load ptr, ptr %5, align 8, !tbaa !75
  store i64 %102, ptr %103, align 8, !tbaa !71
  call void @llvm.lifetime.start.p0(i64 8, ptr %17) #8
  %104 = load ptr, ptr %5, align 8, !tbaa !75
  %105 = load i64, ptr %104, align 8, !tbaa !71
  %106 = call noalias ptr @g_malloc(i64 noundef %105) #9
  store ptr %106, ptr %17, align 8, !tbaa !59
  %107 = load ptr, ptr %17, align 8, !tbaa !59
  call void @llvm.memcpy.p0.p0.i64(ptr align 1 %107, ptr align 4 %13, i64 4, i1 false)
  %108 = load ptr, ptr %17, align 8, !tbaa !59
  %109 = getelementptr inbounds nuw i8, ptr %108, i64 4
  %110 = load ptr, ptr %9, align 8, !tbaa !77
  %111 = load i32, ptr %12, align 4, !tbaa !62
  %112 = zext i32 %111 to i64
  call void @llvm.memcpy.p0.p0.i64(ptr align 1 %109, ptr align 2 %110, i64 %112, i1 false)
  %113 = load ptr, ptr %9, align 8, !tbaa !77
  call void @g_free(ptr noundef %113)
  %114 = load ptr, ptr %17, align 8, !tbaa !59
  store ptr %114, ptr %3, align 8
  store i32 1, ptr %10, align 4
  call void @llvm.lifetime.end.p0(i64 8, ptr %17) #8
  call void @llvm.lifetime.end.p0(i64 4, ptr %13) #8
  call void @llvm.lifetime.end.p0(i64 4, ptr %12) #8
  call void @llvm.lifetime.end.p0(i64 8, ptr %11) #8
  br label %115

115:                                              ; preds = %97, %38
  call void @llvm.lifetime.end.p0(i64 8, ptr %9) #8
  call void @llvm.lifetime.end.p0(i64 8, ptr %8) #8
  call void @llvm.lifetime.end.p0(i64 8, ptr %7) #8
  call void @llvm.lifetime.end.p0(i64 8, ptr %6) #8
  %116 = load ptr, ptr %3, align 8
  ret ptr %116
}