; Function Attrs: nounwind uwtable
define internal fastcc noundef ptr @char2qstring(ptr noundef %0, ptr noundef nonnull writeonly captures(none) %1) unnamed_addr #0 {
  %3 = alloca i64, align 8
  %4 = alloca i64, align 8
  %5 = alloca ptr, align 8
  call void @llvm.lifetime.start.p0(i64 8, ptr nonnull %3) #10
  call void @llvm.lifetime.start.p0(i64 8, ptr nonnull %4) #10
  call void @llvm.lifetime.start.p0(i64 8, ptr nonnull %5) #10
  store ptr null, ptr %5, align 8, !tbaa !6
  %6 = call noalias ptr @g_utf8_to_utf16(ptr noundef %0, i64 noundef -1, ptr noundef nonnull %3, ptr noundef nonnull %4, ptr noundef nonnull %5) #10
  %7 = load ptr, ptr %5, align 8, !tbaa !6
  %.not = icmp eq ptr %7, null
  br i1 %.not, label %.preheader, label %10

.preheader:                                       ; preds = %2
  %8 = load i64, ptr %4, align 8, !tbaa !62
  %9 = icmp sgt i64 %8, 0
  br i1 %9, label %.lr.ph, label %._crit_edge

10:                                               ; preds = %2
  %11 = load i32, ptr getelementptr inbounds nuw (i8, ptr @darktable, i64 8), align 8, !tbaa !16
  %12 = and i32 %11, 64
  %.not32 = icmp eq i32 %12, 0
  br i1 %.not32, label %16, label %13

13:                                               ; preds = %10
  %14 = getelementptr inbounds nuw i8, ptr %7, i64 8
  %15 = load ptr, ptr %14, align 8, !tbaa !54
  call void (ptr, ...) @dt_print_ext(ptr noundef nonnull @.str.25, ptr noundef %15) #10
  br label %16

16:                                               ; preds = %13, %10
  call void @g_free(ptr noundef %6) #10
  %17 = load ptr, ptr %5, align 8, !tbaa !6
  call void @g_error_free(ptr noundef %17) #10
  br label %27

.lr.ph:                                           ; preds = %.preheader, %.lr.ph
  %.02833 = phi i64 [ %20, %.lr.ph ], [ 0, %.preheader ]
  %18 = getelementptr inbounds nuw i16, ptr %6, i64 %.02833
  %19 = load i16, ptr %18, align 2, !tbaa !66
  %rev = call i16 @llvm.bswap.i16(i16 %19)
  store i16 %rev, ptr %18, align 2, !tbaa !66
  %20 = add nuw nsw i64 %.02833, 1
  %exitcond.not = icmp eq i64 %20, %8
  br i1 %exitcond.not, label %._crit_edge, label %.lr.ph

._crit_edge:                                      ; preds = %.lr.ph, %.preheader
  %.tr = trunc i64 %8 to i32
  %21 = shl i32 %.tr, 1
  %22 = call i32 asm "bswapl $0", "=r,0,~{dirflag},~{fpsr},~{flags}"(i32 %21) #11, !srcloc !68
  %23 = zext i32 %21 to i64
  %24 = add nuw nsw i64 %23, 4
  store i64 %24, ptr %1, align 8, !tbaa !62
  %25 = call noalias ptr @g_malloc(i64 noundef %24) #9
  store i32 %22, ptr %25, align 1
  %26 = getelementptr inbounds nuw i8, ptr %25, i64 4
  call void @llvm.memcpy.p0.p0.i64(ptr nonnull align 1 %26, ptr align 2 %6, i64 %23, i1 false)
  call void @g_free(ptr noundef %6) #10
  br label %27

27:                                               ; preds = %._crit_edge, %16
  %.0 = phi ptr [ null, %16 ], [ %25, %._crit_edge ]
  call void @llvm.lifetime.end.p0(i64 8, ptr nonnull %5) #10
  call void @llvm.lifetime.end.p0(i64 8, ptr nonnull %4) #10
  call void @llvm.lifetime.end.p0(i64 8, ptr nonnull %3) #10
  ret ptr %.0
}